target datalayout = "e-m:e-p270:32:32-p271:32:32-p272:64:64-i64:64-i128:128-f80:128-n8:16:32:64-S128"
target triple = "x86_64-pc-linux-gnu"

%struct.SortState = type { %struct.ScanState, i8, i8, i64, i8, i8, i64, ptr, i8, i8, ptr }
%struct.ScanState = type { %struct.PlanState, ptr, ptr, ptr }
%struct.PlanState = type { i32, ptr, ptr, ptr, ptr, ptr, ptr, ptr, ptr, ptr, ptr, ptr, ptr, ptr, ptr, ptr, ptr, ptr, i8, ptr, ptr, ptr, ptr, ptr, i8, i8, i8, i8, i8, i8, i8, i8 }
%struct.Plan = type { i32, i32, double, double, double, i32, i8, i8, i8, i32, ptr, ptr, ptr, ptr, ptr, ptr, ptr }
%struct.SharedSortInfo = type { i32, [0 x %struct.TuplesortInstrumentation] }
%struct.TuplesortInstrumentation = type { i32, i32, i64 }
%struct.ParallelContext = type { %struct.dlist_node, i32, i32, i32, i32, ptr, ptr, ptr, %struct.shm_toc_estimator, ptr, ptr, ptr, ptr, i32, ptr }
%struct.dlist_node = type { ptr, ptr }
%struct.shm_toc_estimator = type { i64, i64 }

; Function Attrs: nounwind uwtable
define dso_local void @ExecSortInitializeDSM(ptr noundef %0, ptr noundef %1) #0 {
  %3 = alloca ptr, align 8
  %4 = alloca ptr, align 8
  %5 = alloca i64, align 8
  %6 = alloca i32, align 4
  store ptr %0, ptr %3, align 8
  store ptr %1, ptr %4, align 8
  call void @llvm.lifetime.start.p0(i64 8, ptr %5) #7
  %7 = load ptr, ptr %3, align 8
  %8 = getelementptr inbounds nuw %struct.SortState, ptr %7, i32 0, i32 0
  %9 = getelementptr inbounds nuw %struct.ScanState, ptr %8, i32 0, i32 0
  %10 = getelementptr inbounds nuw %struct.PlanState, ptr %9, i32 0, i32 5
  %11 = load ptr, ptr %10, align 8
  %12 = icmp ne ptr %11, null
  br i1 %12, label %13, label %18

13:                                               ; preds = %2
  %14 = load ptr, ptr %4, align 8
  %15 = getelementptr inbounds nuw %struct.ParallelContext, ptr %14, i32 0, i32 2
  %16 = load i32, ptr %15, align 4
  %17 = icmp eq i32 %16, 0
  br i1 %17, label %18, label %19

18:                                               ; preds = %13, %2
  store i32 1, ptr %6, align 4
  br label %58

19:                                               ; preds = %13
  %20 = load ptr, ptr %4, align 8
  %21 = getelementptr inbounds nuw %struct.ParallelContext, ptr %20, i32 0, i32 2
  %22 = load i32, ptr %21, align 4
  %23 = sext i32 %22 to i64
  %24 = mul i64 %23, 16
  %25 = add i64 8, %24
  store i64 %25, ptr %5, align 8
  %26 = load ptr, ptr %4, align 8
  %27 = getelementptr inbounds nuw %struct.ParallelContext, ptr %26, i32 0, i32 11
  %28 = load ptr, ptr %27, align 8
  %29 = load i64, ptr %5, align 8
  %30 = call ptr @shm_toc_allocate(ptr noundef %28, i64 noundef %29)
  %31 = load ptr, ptr %3, align 8
  %32 = getelementptr inbounds nuw %struct.SortState, ptr %31, i32 0, i32 10
  store ptr %30, ptr %32, align 8
  %33 = load ptr, ptr %3, align 8
  %34 = getelementptr inbounds nuw %struct.SortState, ptr %33, i32 0, i32 10
  %35 = load ptr, ptr %34, align 8
  %36 = load i64, ptr %5, align 8
  call void @llvm.memset.p0.i64(ptr align 8 %35, i8 0, i64 %36, i1 false)
  %37 = load ptr, ptr %4, align 8
  %38 = getelementptr inbounds nuw %struct.ParallelContext, ptr %37, i32 0, i32 2
  %39 = load i32, ptr %38, align 4
  %40 = load ptr, ptr %3, align 8
  %41 = getelementptr inbounds nuw %struct.SortState, ptr %40, i32 0, i32 10
  %42 = load ptr, ptr %41, align 8
  %43 = getelementptr inbounds nuw %struct.SharedSortInfo, ptr %42, i32 0, i32 0
  store i32 %39, ptr %43, align 8
  %44 = load ptr, ptr %4, align 8
  %45 = getelementptr inbounds nuw %struct.ParallelContext, ptr %44, i32 0, i32 11
  %46 = load ptr, ptr %45, align 8
  %47 = load ptr, ptr %3, align 8
  %48 = getelementptr inbounds nuw %struct.SortState, ptr %47, i32 0, i32 0
  %49 = getelementptr inbounds nuw %struct.ScanState, ptr %48, i32 0, i32 0
  %50 = getelementptr inbounds nuw %struct.PlanState, ptr %49, i32 0, i32 1
  %51 = load ptr, ptr %50, align 8
  %52 = getelementptr inbounds nuw %struct.Plan, ptr %51, i32 0, i32 9
  %53 = load i32, ptr %52, align 8
  %54 = sext i32 %53 to i64
  %55 = load ptr, ptr %3, align 8
  %56 = getelementptr inbounds nuw %struct.SortState, ptr %55, i32 0, i32 10
  %57 = load ptr, ptr %56, align 8
  call void @shm_toc_insert(ptr noundef %46, i64 noundef %54, ptr noundef %57)
  store i32 0, ptr %6, align 4
  br label %58

58:                                               ; preds = %19, %18
  call void @llvm.lifetime.end.p0(i64 8, ptr %5) #7
  %59 = load i32, ptr %6, align 4
  switch i32 %59, label %61 [
    i32 0, label %60
    i32 1, label %60
  ]

60:                                               ; preds = %58, %58
  ret void

61:                                               ; preds = %58
  unreachable
}